(lp1
(lp2
I0
aI0
aI0
aI0
aa(lp3
I28
aI5
aI6
aI30
aa(lp4
I21
aI3
aI6
aI30
aa(lp5
I20
aI5
aI3
aI15
aa(lp6
I25
aI5
aI3
aI15
aa(lp7
I31
aI7
aI3
aI15
aa(lp8
I14
aI2
aI3
aI15
aa(lp9
I0
aI0
aI0
aI0
aa(lp10
I24
aI5
aI3
aI15
aa(lp11
I0
aI0
aI0
aI0
aa(lp12
I21
aI4
aI3
aI15
aa(lp13
I0
aI0
aI0
aI0
aa(lp14
I18
aI4
aI3
aI15
aa(lp15
I16
aI3
aI3
aI15
aa(lp16
I18
aI4
aI3
aI15
aa(lp17
I0
aI0
aI0
aI0
aa(lp18
I15
aI2
aI3
aI15
aa(lp19
I21
aI3
aI6
aI30
aa(lp20
I21
aI4
aI3
aI15
aa(lp21
I0
aI0
aI0
aI0
aa(lp22
I20
aI5
aI3
aI15
aa(lp23
I0
aI0
aI0
aI0
aa(lp24
I0
aI0
aI0
aI0
aa(lp25
I17
aI3
aI3
aI15
aa(lp26
I12
aI4
aI0
aI0
aa(lp27
I0
aI0
aI0
aI0
aa(lp28
I0
aI0
aI0
aI0
aa(lp29
I24
aI5
aI3
aI15
aa(lp30
I20
aI6
aI3
aI15
aa(lp31
I0
aI0
aI0
aI0
aa(lp32
I0
aI0
aI0
aI0
aa(lp33
I10
aI3
aI0
aI0
aa(lp34
I13
aI1
aI3
aI15
aa(lp35
I0
aI0
aI0
aI0
aa(lp36
I23
aI3
aI6
aI30
aa(lp37
I21
aI4
aI3
aI15
aa(lp38
I18
aI3
aI3
aI15
aa(lp39
I21
aI3
aI6
aI30
aa(lp40
I31
aI6
aI6
aI30
aa(lp41
I33
aI4
aI9
aI45
aa(lp42
I22
aI6
aI3
aI15
aa(lp43
I18
aI4
aI3
aI15
aa(lp44
I21
aI3
aI3
aI15
aa(lp45
I0
aI0
aI0
aI0
aa(lp46
I0
aI0
aI0
aI0
aa(lp47
I19
aI4
aI3
aI15
aa(lp48
I0
aI0
aI0
aI0
aa(lp49
I17
aI3
aI3
aI15
aa(lp50
I19
aI3
aI3
aI15
aa(lp51
I25
aI5
aI6
aI30
aa(lp52
I18
aI4
aI3
aI15
aa(lp53
I12
aI4
aI0
aI0
aa(lp54
I0
aI0
aI0
aI0
aa(lp55
I32
aI5
aI9
aI45
aa(lp56
I0
aI0
aI0
aI0
aa(lp57
I0
aI0
aI0
aI0
aa(lp58
I27
aI5
aI6
aI30
aa(lp59
I26
aI8
aI3
aI15
aa(lp60
I21
aI5
aI3
aI15
aa(lp61
I0
aI0
aI0
aI0
aa(lp62
I16
aI2
aI3
aI15
aa(lp63
I18
aI4
aI3
aI15
aa(lp64
I37
aI8
aI6
aI30
aa(lp65
I17
aI4
aI3
aI15
aa(lp66
I21
aI4
aI3
aI15
aa(lp67
I0
aI0
aI0
aI0
aa(lp68
I20
aI5
aI0
aI0
aa(lp69
I0
aI0
aI0
aI0
aa(lp70
I21
aI4
aI3
aI15
aa(lp71
I0
aI0
aI0
aI0
aa(lp72
I24
aI5
aI3
aI15
aa(lp73
I18
aI4
aI3
aI15
aa(lp74
I22
aI4
aI3
aI15
aa(lp75
I0
aI0
aI0
aI0
aa(lp76
I16
aI3
aI3
aI15
aa(lp77
I4
aI0
aI0
aI0
aa(lp78
I0
aI0
aI0
aI0
aa(lp79
I21
aI4
aI3
aI15
aa(lp80
I22
aI4
aI3
aI15
aa(lp81
I19
aI4
aI3
aI15
aa(lp82
I18
aI4
aI3
aI15
aa(lp83
I16
aI3
aI3
aI15
aa(lp84
I0
aI0
aI0
aI0
aa(lp85
I0
aI0
aI0
aI0
aa(lp86
I0
aI0
aI0
aI0
aa(lp87
I28
aI7
aI3
aI15
aa(lp88
I16
aI3
aI3
aI15
aa(lp89
I-1
aI-1
aI-1
aI-1
aa(lp90
I8
aI0
aI0
aI0
aa(lp91
I20
aI3
aI6
aI30
aa(lp92
I0
aI0
aI0
aI0
aa(lp93
I26
aI5
aI5
aI25
aa(lp94
I22
aI4
aI3
aI15
aa(lp95
I21
aI5
aI3
aI15
aa(lp96
I0
aI0
aI0
aI0
aa(lp97
I0
aI0
aI0
aI0
aa(lp98
I0
aI0
aI0
aI0
aa(lp99
I18
aI4
aI3
aI15
aa(lp100
I0
aI0
aI0
aI0
aa(lp101
I19
aI4
aI3
aI15
aa(lp102
I0
aI0
aI0
aI0
aa(lp103
I0
aI0
aI0
aI0
aa(lp104
I0
aI0
aI0
aI0
aa(lp105
I30
aI6
aI6
aI30
aa(lp106
I24
aI5
aI3
aI15
aa(lp107
I18
aI3
aI3
aI15
aa(lp108
I26
aI2
aI9
aI45
aa(lp109
I24
aI5
aI3
aI15
aa(lp110
I27
aI5
aI6
aI30
aa(lp111
I24
aI5
aI3
aI15
aa(lp112
I0
aI0
aI0
aI0
aa(lp113
I16
aI3
aI3
aI15
aa(lp114
I0
aI0
aI0
aI0
aa(lp115
I18
aI4
aI3
aI15
aa(lp116
I28
aI5
aI6
aI30
aa(lp117
I8
aI2
aI0
aI0
aa(lp118
I0
aI0
aI0
aI0
aa(lp119
I16
aI3
aI3
aI15
aa(lp120
I0
aI0
aI0
aI0
aa(lp121
I21
aI5
aI3
aI15
aa(lp122
I8
aI2
aI0
aI0
aa(lp123
I0
aI0
aI0
aI0
aa(lp124
I18
aI4
aI3
aI15
aa(lp125
I8
aI2
aI0
aI0
aa(lp126
I0
aI0
aI0
aI0
aa(lp127
I0
aI0
aI0
aI0
aa(lp128
I0
aI0
aI0
aI0
aa(lp129
I0
aI0
aI0
aI0
aa(lp130
I0
aI0
aI0
aI0
aa(lp131
I21
aI3
aI6
aI30
aa(lp132
I13
aI0
aI3
aI9
aa(lp133
I9
aI0
aI0
aI0
aa(lp134
I0
aI0
aI0
aI0
aa(lp135
I0
aI0
aI0
aI0
aa(lp136
I0
aI0
aI0
aI0
aa(lp137
I28
aI5
aI6
aI30
aa(lp138
I22
aI6
aI3
aI15
aa(lp139
I20
aI5
aI3
aI15
aa(lp140
I8
aI0
aI0
aI0
aa(lp141
I26
aI5
aI6
aI30
aa(lp142
I0
aI0
aI0
aI0
aa(lp143
I8
aI2
aI0
aI0
aa(lp144
I8
aI2
aI0
aI0
aa(lp145
I0
aI0
aI0
aI0
aa(lp146
I18
aI4
aI3
aI15
aa(lp147
I0
aI0
aI0
aI0
aa(lp148
I0
aI0
aI0
aI0
aa(lp149
I0
aI0
aI0
aI0
aa(lp150
I0
aI0
aI0
aI0
aa(lp151
I19
aI4
aI3
aI15
aa(lp152
I22
aI4
aI3
aI15
aa(lp153
I22
aI4
aI3
aI15
aa(lp154
I0
aI0
aI0
aI0
aa(lp155
I0
aI0
aI0
aI0
aa(lp156
I24
aI5
aI3
aI15
aa(lp157
I23
aI6
aI3
aI15
aa(lp158
I21
aI4
aI3
aI15
aa(lp159
I15
aI2
aI3
aI15
aa(lp160
I23
aI5
aI3
aI15
aa(lp161
I0
aI0
aI0
aI0
aa(lp162
I0
aI0
aI0
aI0
aa(lp163
I0
aI0
aI0
aI0
aa(lp164
I19
aI4
aI3
aI15
aa(lp165
I19
aI4
aI3
aI15
aa(lp166
I0
aI0
aI0
aI0
aa(lp167
I0
aI0
aI0
aI0
aa(lp168
I24
aI6
aI3
aI15
aa(lp169
I8
aI2
aI0
aI0
aa(lp170
I0
aI0
aI0
aI0
aa(lp171
I0
aI0
aI0
aI0
aa(lp172
I31
aI7
aI6
aI30
aa(lp173
I8
aI2
aI0
aI0
aa(lp174
I21
aI4
aI3
aI15
aa(lp175
I0
aI0
aI0
aI0
aa(lp176
I0
aI0
aI0
aI0
aa(lp177
I25
aI6
aI3
aI15
aa(lp178
I0
aI0
aI0
aI0
aa(lp179
I18
aI4
aI3
aI15
aa(lp180
I0
aI0
aI0
aI0
aa(lp181
I0
aI0
aI0
aI0
aa(lp182
I25
aI6
aI3
aI15
aa(lp183
I15
aI2
aI3
aI15
aa(lp184
I16
aI3
aI3
aI15
aa(lp185
I0
aI0
aI0
aI0
aa(lp186
I20
aI6
aI3
aI15
aa(lp187
I26
aI5
aI6
aI30
aa(lp188
I24
aI7
aI3
aI15
aa(lp189
I20
aI5
aI3
aI15
aa(lp190
I18
aI4
aI3
aI15
aa(lp191
I0
aI0
aI0
aI0
aa(lp192
I0
aI0
aI0
aI0
aa(lp193
I24
aI5
aI3
aI15
aa(lp194
I21
aI4
aI3
aI15
aa(lp195
I15
aI2
aI3
aI15
aa(lp196
I16
aI3
aI3
aI15
aa(lp197
I0
aI0
aI0
aI0
aa(lp198
I25
aI5
aI6
aI30
aa(lp199
I23
aI4
aI6
aI30
aa(lp200
I23
aI5
aI3
aI15
aa(lp201
I0
aI0
aI0
aI0
aa(lp202
I4
aI0
aI0
aI0
aa(lp203
I8
aI2
aI0
aI0
aa(lp204
I0
aI0
aI0
aI0
aa(lp205
I0
aI0
aI0
aI0
aa(lp206
I0
aI0
aI0
aI0
aa(lp207
I20
aI3
aI3
aI15
aa(lp208
I15
aI0
aI0
aI0
aa(lp209
I8
aI2
aI0
aI0
aa(lp210
I26
aI5
aI6
aI30
aa(lp211
I17
aI3
aI3
aI15
aa(lp212
I15
aI2
aI3
aI15
aa(lp213
I0
aI0
aI0
aI0
aa(lp214
I8
aI2
aI0
aI0
aa(lp215
I20
aI5
aI3
aI15
aa(lp216
I0
aI0
aI0
aI0
aa(lp217
I0
aI0
aI0
aI0
aa(lp218
I16
aI3
aI3
aI15
aa(lp219
I33
aI6
aI6
aI30
aa(lp220
I19
aI3
aI3
aI15
aa(lp221
I22
aI5
aI3
aI15
aa(lp222
I0
aI0
aI0
aI0
aa(lp223
I0
aI0
aI0
aI0
aa(lp224
I14
aI2
aI3
aI15
aa(lp225
I28
aI8
aI3
aI15
aa(lp226
I16
aI3
aI3
aI15
aa(lp227
I13
aI1
aI3
aI15
aa(lp228
I38
aI8
aI9
aI45
aa(lp229
I22
aI2
aI3
aI15
aa(lp230
I20
aI4
aI3
aI15
aa(lp231
I0
aI0
aI0
aI0
aa(lp232
I25
aI6
aI3
aI15
aa(lp233
I0
aI0
aI0
aI0
aa(lp234
I16
aI3
aI3
aI15
aa(lp235
I0
aI0
aI0
aI0
aa(lp236
I0
aI0
aI0
aI0
aa(lp237
I0
aI0
aI0
aI0
aa(lp238
I0
aI0
aI0
aI0
aa(lp239
I16
aI3
aI3
aI15
aa(lp240
I29
aI4
aI9
aI45
aa(lp241
I0
aI0
aI0
aI0
aa(lp242
I25
aI5
aI3
aI15
aa(lp243
I20
aI4
aI3
aI15
aa(lp244
I21
aI3
aI6
aI30
aa(lp245
I19
aI4
aI3
aI15
aa(lp246
I28
aI3
aI6
aI30
aa(lp247
I15
aI2
aI3
aI15
aa(lp248
I16
aI3
aI3
aI15
aa(lp249
I30
aI6
aI6
aI30
aa(lp250
I22
aI6
aI3
aI15
aa(lp251
I28
aI7
aI3
aI15
aa(lp252
I20
aI3
aI3
aI15
aa(lp253
I16
aI3
aI3
aI15
aa(lp254
I0
aI0
aI0
aI0
aa(lp255
I23
aI3
aI6
aI30
aa(lp256
I16
aI3
aI3
aI15
aa(lp257
I16
aI3
aI3
aI15
aa(lp258
I20
aI3
aI6
aI30
aa(lp259
I25
aI5
aI3
aI15
aa(lp260
I18
aI4
aI3
aI15
aa(lp261
I21
aI4
aI3
aI15
aa(lp262
I8
aI2
aI0
aI0
aa(lp263
I31
aI6
aI9
aI45
aa(lp264
I20
aI4
aI3
aI15
aa(lp265
I0
aI0
aI0
aI0
aa(lp266
I0
aI0
aI0
aI0
aa(lp267
I25
aI6
aI3
aI15
aa(lp268
I19
aI4
aI3
aI15
aa(lp269
I8
aI2
aI0
aI0
aa(lp270
I12
aI0
aI0
aI0
aa(lp271
I16
aI3
aI3
aI15
aa(lp272
I0
aI0
aI0
aI0
aa(lp273
I14
aI2
aI3
aI15
aa(lp274
I17
aI3
aI3
aI15
aa(lp275
I0
aI0
aI0
aI0
aa(lp276
I0
aI0
aI0
aI0
aa(lp277
I0
aI0
aI0
aI0
aa(lp278
I19
aI3
aI3
aI15
aa(lp279
I17
aI3
aI3
aI15
aa(lp280
I18
aI4
aI3
aI15
aa(lp281
I0
aI0
aI0
aI0
aa(lp282
I8
aI2
aI0
aI0
aa(lp283
I0
aI0
aI0
aI0
aa(lp284
I18
aI4
aI3
aI15
aa(lp285
I0
aI0
aI0
aI0
aa(lp286
I0
aI0
aI0
aI0
aa(lp287
I18
aI4
aI3
aI15
aa(lp288
I19
aI4
aI3
aI15
aa(lp289
I16
aI3
aI3
aI15
aa(lp290
I26
aI6
aI3
aI15
aa(lp291
I22
aI6
aI3
aI15
aa(lp292
I18
aI3
aI3
aI15
aa(lp293
I26
aI6
aI3
aI15
aa(lp294
I25
aI6
aI3
aI15
aa(lp295
I20
aI4
aI3
aI15
aa(lp296
I0
aI0
aI0
aI0
aa(lp297
I17
aI3
aI3
aI15
aa(lp298
I26
aI6
aI3
aI15
aa(lp299
I24
aI6
aI3
aI15
aa(lp300
I14
aI2
aI3
aI15
aa(lp301
I26
aI5
aI6
aI30
aa(lp302
I22
aI5
aI3
aI15
aa(lp303
I18
aI4
aI3
aI15
aa(lp304
I0
aI0
aI0
aI0
aa(lp305
I16
aI2
aI3
aI15
aa(lp306
I21
aI5
aI3
aI15
aa(lp307
I26
aI8
aI3
aI15
aa(lp308
I8
aI2
aI0
aI0
aa(lp309
I29
aI7
aI3
aI15
aa(lp310
I0
aI0
aI0
aI0
aa(lp311
I17
aI4
aI3
aI15
aa(lp312
I8
aI2
aI0
aI0
aa(lp313
I0
aI0
aI0
aI0
aa(lp314
I0
aI0
aI0
aI0
aa(lp315
I0
aI0
aI0
aI0
aa(lp316
I25
aI5
aI6
aI30
aa(lp317
I16
aI3
aI3
aI15
aa(lp318
I0
aI0
aI0
aI0
aa(lp319
I0
aI0
aI0
aI0
aa(lp320
I0
aI0
aI0
aI0
aa(lp321
I22
aI3
aI6
aI30
aa(lp322
I15
aI2
aI3
aI15
aa(lp323
I8
aI2
aI0
aI0
aa(lp324
I0
aI0
aI0
aI0
aa(lp325
I22
aI6
aI3
aI15
aa(lp326
I21
aI3
aI6
aI30
aa(lp327
I20
aI5
aI3
aI15
aa(lp328
I0
aI0
aI0
aI0
aa(lp329
I0
aI0
aI0
aI0
aa(lp330
I0
aI0
aI0
aI0
aa(lp331
I28
aI6
aI3
aI15
aa(lp332
I20
aI5
aI3
aI15
aa(lp333
I24
aI5
aI3
aI15
aa(lp334
I0
aI0
aI0
aI0
aa(lp335
I20
aI6
aI3
aI15
aa(lp336
I21
aI5
aI3
aI15
aa(lp337
I34
aI7
aI3
aI15
aa(lp338
I21
aI3
aI6
aI30
aa(lp339
I20
aI4
aI3
aI15
aa(lp340
I8
aI2
aI0
aI0
aa(lp341
I16
aI3
aI3
aI15
aa(lp342
I20
aI4
aI3
aI15
aa(lp343
I28
aI4
aI6
aI30
aa(lp344
I22
aI3
aI6
aI30
aa(lp345
I18
aI4
aI3
aI15
aa(lp346
I18
aI4
aI3
aI15
aa(lp347
I0
aI0
aI0
aI0
aa(lp348
I26
aI5
aI6
aI30
aa(lp349
I21
aI5
aI3
aI15
aa(lp350
I21
aI3
aI6
aI30
aa(lp351
I31
aI8
aI3
aI15
aa(lp352
I0
aI0
aI0
aI0
aa(lp353
I0
aI0
aI0
aI0
aa(lp354
I15
aI2
aI3
aI15
aa(lp355
I25
aI6
aI3
aI15
aa(lp356
I25
aI5
aI3
aI15
aa(lp357
I0
aI0
aI0
aI0
aa(lp358
I0
aI0
aI0
aI0
aa(lp359
I18
aI4
aI3
aI15
aa(lp360
I0
aI0
aI0
aI0
aa(lp361
I0
aI0
aI0
aI0
aa(lp362
I6
aI1
aI0
aI0
aa(lp363
I17
aI3
aI3
aI15
aa(lp364
I0
aI0
aI0
aI0
aa(lp365
I22
aI5
aI3
aI15
aa(lp366
I16
aI3
aI3
aI15
aa(lp367
I0
aI0
aI0
aI0
aa(lp368
I21
aI3
aI6
aI30
aa(lp369
I15
aI2
aI3
aI15
aa(lp370
I30
aI5
aI9
aI45
aa(lp371
I18
aI4
aI3
aI15
aa(lp372
I20
aI5
aI3
aI15
aa(lp373
I21
aI5
aI3
aI15
aa(lp374
I17
aI3
aI3
aI15
aa(lp375
I0
aI0
aI0
aI0
aa(lp376
I25
aI5
aI6
aI30
aa(lp377
I8
aI2
aI0
aI0
aa(lp378
I16
aI3
aI3
aI15
aa(lp379
I22
aI4
aI3
aI15
aa(lp380
I28
aI5
aI6
aI30
aa(lp381
I26
aI8
aI3
aI15
aa(lp382
I0
aI0
aI0
aI0
aa(lp383
I0
aI0
aI0
aI0
aa(lp384
I20
aI4
aI3
aI15
aa(lp385
I0
aI0
aI0
aI0
aa(lp386
I0
aI0
aI0
aI0
aa(lp387
I26
aI4
aI9
aI45
aa(lp388
I14
aI2
aI3
aI15
aa(lp389
I22
aI6
aI3
aI15
aa(lp390
I35
aI7
aI9
aI45
aa(lp391
I0
aI0
aI0
aI0
aa(lp392
I16
aI3
aI3
aI15
aa(lp393
I18
aI4
aI3
aI15
aa(lp394
I23
aI4
aI6
aI30
aa(lp395
I22
aI6
aI3
aI15
aa(lp396
I16
aI3
aI3
aI15
aa(lp397
I21
aI3
aI6
aI30
aa(lp398
I20
aI5
aI3
aI15
aa(lp399
I18
aI3
aI3
aI15
aa(lp400
I22
aI5
aI3
aI15
aa(lp401
I0
aI0
aI0
aI0
aa(lp402
I16
aI3
aI3
aI15
aa(lp403
I25
aI5
aI6
aI30
aa(lp404
I14
aI2
aI3
aI15
aa(lp405
I0
aI0
aI0
aI0
aa(lp406
I0
aI0
aI0
aI0
aa(lp407
I23
aI3
aI6
aI30
aa(lp408
I0
aI0
aI0
aI0
aa(lp409
I28
aI5
aI6
aI30
aa(lp410
I21
aI3
aI6
aI30
aa(lp411
I0
aI0
aI0
aI0
aa(lp412
I0
aI0
aI0
aI0
aa(lp413
I21
aI4
aI3
aI15
aa(lp414
I28
aI6
aI3
aI15
aa(lp415
I0
aI0
aI0
aI0
aa(lp416
I0
aI0
aI0
aI0
aa(lp417
I21
aI3
aI6
aI30
aa(lp418
I24
aI4
aI6
aI30
aa(lp419
I26
aI5
aI6
aI30
aa(lp420
I24
aI4
aI3
aI15
aa(lp421
I21
aI3
aI6
aI30
aa(lp422
I17
aI3
aI3
aI15
aa(lp423
I22
aI3
aI6
aI30
aa(lp424
I23
aI4
aI6
aI30
aa(lp425
I18
aI4
aI3
aI15
aa(lp426
I32
aI7
aI6
aI30
aa(lp427
I21
aI4
aI3
aI15
aa(lp428
I22
aI5
aI0
aI0
aa(lp429
I27
aI6
aI3
aI15
aa(lp430
I0
aI0
aI0
aI0
aa(lp431
I18
aI4
aI3
aI15
aa(lp432
I0
aI0
aI0
aI0
aa(lp433
I14
aI1
aI3
aI15
aa(lp434
I19
aI3
aI3
aI15
aa(lp435
I17
aI3
aI3
aI15
aa(lp436
I21
aI3
aI6
aI30
aa(lp437
I22
aI5
aI3
aI15
aa(lp438
I0
aI0
aI0
aI0
aa(lp439
I19
aI5
aI3
aI15
aa(lp440
I0
aI0
aI0
aI0
aa(lp441
I0
aI0
aI0
aI0
aa(lp442
I8
aI2
aI0
aI0
aa(lp443
I0
aI0
aI0
aI0
aa(lp444
I21
aI4
aI3
aI15
aa(lp445
I19
aI4
aI3
aI15
aa(lp446
I26
aI4
aI6
aI30
aa(lp447
I20
aI3
aI3
aI15
aa(lp448
I17
aI3
aI3
aI15
aa(lp449
I15
aI2
aI3
aI15
aa(lp450
I28
aI4
aI6
aI30
aa(lp451
I19
aI0
aI4
aI12
aa(lp452
I0
aI0
aI0
aI0
aa(lp453
I0
aI0
aI0
aI0
aa(lp454
I18
aI4
aI3
aI15
aa(lp455
I0
aI0
aI0
aI0
aa(lp456
I40
aI6
aI9
aI45
aa(lp457
I20
aI3
aI3
aI15
aa(lp458
I0
aI0
aI0
aI0
aa(lp459
I21
aI3
aI6
aI30
aa(lp460
I0
aI0
aI0
aI0
aa(lp461
I0
aI0
aI0
aI0
aa(lp462
I0
aI0
aI0
aI0
aa(lp463
I17
aI3
aI3
aI15
aa(lp464
I0
aI0
aI0
aI0
aa(lp465
I28
aI5
aI6
aI30
aa(lp466
I0
aI0
aI0
aI0
aa(lp467
I0
aI0
aI0
aI0
aa(lp468
I0
aI0
aI0
aI0
aa(lp469
I26
aI6
aI3
aI15
aa(lp470
I0
aI0
aI0
aI0
aa(lp471
I27
aI3
aI9
aI45
aa(lp472
I26
aI6
aI3
aI15
aa(lp473
I8
aI2
aI0
aI0
aa(lp474
I0
aI0
aI0
aI0
aa(lp475
I20
aI3
aI3
aI15
aa(lp476
I16
aI2
aI3
aI15
aa(lp477
I19
aI6
aI0
aI0
aa(lp478
I0
aI0
aI0
aI0
aa(lp479
I26
aI6
aI3
aI15
aa(lp480
I0
aI0
aI0
aI0
aa(lp481
I28
aI5
aI6
aI30
aa(lp482
I35
aI5
aI9
aI45
aa(lp483
I0
aI0
aI0
aI0
aa(lp484
I18
aI4
aI3
aI15
aa(lp485
I24
aI6
aI3
aI15
aa(lp486
I31
aI7
aI3
aI15
aa(lp487
I30
aI6
aI6
aI30
aa(lp488
I30
aI5
aI9
aI45
aa(lp489
I19
aI4
aI3
aI15
aa(lp490
I8
aI2
aI0
aI0
aa(lp491
I8
aI2
aI0
aI0
aa(lp492
I0
aI0
aI0
aI0
aa(lp493
I11
aI3
aI0
aI0
aa(lp494
I16
aI3
aI3
aI15
aa(lp495
I22
aI3
aI6
aI30
aa(lp496
I20
aI4
aI3
aI15
aa(lp497
I0
aI0
aI0
aI0
aa(lp498
I18
aI4
aI3
aI15
aa(lp499
I0
aI0
aI0
aI0
aa(lp500
I26
aI4
aI6
aI30
aa(lp501
I0
aI0
aI0
aI0
aa(lp502
I0
aI0
aI0
aI0
aa(lp503
I0
aI0
aI0
aI0
aa(lp504
I21
aI3
aI6
aI30
aa(lp505
I17
aI3
aI3
aI15
aa(lp506
I0
aI0
aI0
aI0
aa(lp507
I16
aI3
aI3
aI15
aa(lp508
I0
aI0
aI0
aI0
aa(lp509
I20
aI5
aI3
aI15
aa(lp510
I22
aI4
aI3
aI15
aa(lp511
I0
aI0
aI0
aI0
aa(lp512
I0
aI0
aI0
aI0
aa(lp513
I21
aI3
aI6
aI30
aa(lp514
I0
aI0
aI0
aI0
aa(lp515
I0
aI0
aI0
aI0
aa(lp516
I18
aI4
aI3
aI15
aa(lp517
I0
aI0
aI0
aI0
aa(lp518
I0
aI0
aI0
aI0
aa(lp519
I21
aI5
aI3
aI15
aa(lp520
I17
aI3
aI3
aI15
aa(lp521
I24
aI5
aI3
aI15
aa(lp522
I18
aI4
aI3
aI15
aa(lp523
I17
aI3
aI3
aI15
aa(lp524
I0
aI0
aI0
aI0
aa(lp525
I22
aI5
aI3
aI15
aa(lp526
I15
aI2
aI3
aI15
aa(lp527
I0
aI0
aI0
aI0
aa(lp528
I0
aI0
aI0
aI0
aa(lp529
I20
aI5
aI3
aI15
aa(lp530
I18
aI4
aI3
aI15
aa(lp531
I0
aI0
aI0
aI0
aa(lp532
I0
aI0
aI0
aI0
aa(lp533
I21
aI1
aI6
aI30
aa(lp534
I24
aI5
aI3
aI15
aa(lp535
I0
aI0
aI0
aI0
aa(lp536
I16
aI3
aI3
aI15
aa(lp537
I35
aI9
aI3
aI15
aa(lp538
I30
aI1
aI3
aI15
aa(lp539
I18
aI3
aI3
aI15
aa(lp540
I0
aI0
aI0
aI0
aa(lp541
I0
aI0
aI0
aI0
aa(lp542
I0
aI0
aI0
aI0
aa(lp543
I16
aI3
aI3
aI15
aa(lp544
I18
aI4
aI3
aI15
aa(lp545
I21
aI3
aI6
aI30
aa(lp546
I0
aI0
aI0
aI0
aa(lp547
I0
aI0
aI0
aI0
aa(lp548
I14
aI2
aI3
aI15
aa(lp549
I0
aI0
aI0
aI0
aa(lp550
I22
aI5
aI3
aI15
aa(lp551
I21
aI5
aI3
aI15
aa(lp552
I20
aI5
aI3
aI15
aa(lp553
I25
aI5
aI6
aI30
aa(lp554
I0
aI0
aI0
aI0
aa(lp555
I0
aI0
aI0
aI0
aa(lp556
I0
aI0
aI0
aI0
aa(lp557
I16
aI3
aI3
aI15
aa(lp558
I12
aI1
aI3
aI15
aa(lp559
I23
aI4
aI6
aI30
aa(lp560
I0
aI0
aI0
aI0
aa(lp561
I0
aI0
aI0
aI0
aa(lp562
I24
aI4
aI6
aI30
aa(lp563
I0
aI0
aI0
aI0
aa(lp564
I8
aI2
aI0
aI0
aa(lp565
I36
aI9
aI6
aI30
aa(lp566
I30
aI5
aI9
aI45
aa(lp567
I22
aI4
aI6
aI30
aa(lp568
I8
aI2
aI0
aI0
aa(lp569
I22
aI3
aI3
aI15
aa(lp570
I28
aI5
aI6
aI30
aa(lp571
I17
aI3
aI3
aI15
aa(lp572
I0
aI0
aI0
aI0
aa(lp573
I16
aI3
aI3
aI15
aa(lp574
I32
aI8
aI3
aI15
aa(lp575
I21
aI5
aI3
aI15
aa(lp576
I16
aI3
aI3
aI15
aa(lp577
I20
aI5
aI3
aI15
aa(lp578
I27
aI7
aI6
aI30
aa(lp579
I19
aI4
aI3
aI15
aa(lp580
I16
aI3
aI3
aI15
aa(lp581
I19
aI5
aI3
aI15
aa(lp582
I26
aI5
aI6
aI30
aa(lp583
I0
aI0
aI0
aI0
aa(lp584
I0
aI0
aI0
aI0
aa(lp585
I15
aI2
aI3
aI15
aa(lp586
I19
aI4
aI3
aI15
aa(lp587
I0
aI0
aI0
aI0
aa(lp588
I0
aI0
aI0
aI0
aa(lp589
I17
aI3
aI3
aI15
aa(lp590
I15
aI2
aI3
aI15
aa(lp591
I0
aI0
aI0
aI0
aa(lp592
I30
aI4
aI9
aI45
aa(lp593
I0
aI0
aI0
aI0
aa(lp594
I8
aI2
aI0
aI0
aa(lp595
I19
aI2
aI6
aI30
aa(lp596
I18
aI4
aI3
aI15
aa(lp597
I22
aI6
aI3
aI15
aa(lp598
I14
aI2
aI3
aI15
aa(lp599
I0
aI0
aI0
aI0
aa(lp600
I0
aI0
aI0
aI0
aa(lp601
I0
aI0
aI0
aI0
aa(lp602
I0
aI0
aI0
aI0
aa(lp603
I16
aI3
aI3
aI15
aa(lp604
I21
aI4
aI3
aI15
aa(lp605
I0
aI0
aI0
aI0
aa(lp606
I28
aI7
aI3
aI15
aa(lp607
I0
aI0
aI0
aI0
aa(lp608
I0
aI0
aI0
aI0
aa(lp609
I24
aI5
aI6
aI30
aa(lp610
I28
aI7
aI3
aI15
aa(lp611
I28
aI5
aI6
aI30
aa(lp612
I18
aI4
aI3
aI15
aa(lp613
I0
aI0
aI0
aI0
aa(lp614
I21
aI4
aI3
aI15
aa(lp615
I0
aI0
aI0
aI0
aa(lp616
I19
aI3
aI3
aI15
aa(lp617
I0
aI0
aI0
aI0
aa(lp618
I20
aI3
aI3
aI15
aa(lp619
I26
aI4
aI9
aI45
aa(lp620
I0
aI0
aI0
aI0
aa(lp621
I22
aI5
aI3
aI15
aa(lp622
I0
aI0
aI0
aI0
aa(lp623
I20
aI4
aI3
aI15
aa(lp624
I8
aI2
aI0
aI0
aa(lp625
I31
aI4
aI9
aI45
aa(lp626
I26
aI3
aI9
aI45
aa(lp627
I26
aI3
aI9
aI45
aa(lp628
I21
aI3
aI6
aI30
aa(lp629
I14
aI2
aI3
aI15
aa(lp630
I16
aI3
aI3
aI15
aa(lp631
I16
aI3
aI3
aI15
aa(lp632
I0
aI0
aI0
aI0
aa(lp633
I0
aI0
aI0
aI0
aa(lp634
I28
aI5
aI6
aI30
aa(lp635
I20
aI4
aI3
aI15
aa(lp636
I0
aI0
aI0
aI0
aa(lp637
I0
aI0
aI0
aI0
aa(lp638
I8
aI2
aI0
aI0
aa(lp639
I22
aI4
aI3
aI15
aa(lp640
I20
aI4
aI3
aI15
aa(lp641
I17
aI4
aI3
aI15
aa(lp642
I0
aI0
aI0
aI0
aa(lp643
I0
aI0
aI0
aI0
aa(lp644
I31
aI6
aI6
aI30
aa(lp645
I25
aI4
aI6
aI30
aa(lp646
I0
aI0
aI0
aI0
aa(lp647
I17
aI3
aI3
aI15
aa(lp648
I17
aI3
aI3
aI15
aa(lp649
I22
aI5
aI3
aI15
aa(lp650
I0
aI0
aI0
aI0
aa(lp651
I23
aI1
aI3
aI14
aa(lp652
I8
aI2
aI0
aI0
aa(lp653
I0
aI0
aI0
aI0
aa(lp654
I0
aI0
aI0
aI0
aa(lp655
I0
aI0
aI0
aI0
aa(lp656
I0
aI0
aI0
aI0
aa(lp657
I16
aI3
aI3
aI15
aa(lp658
I28
aI7
aI3
aI15
aa(lp659
I28
aI7
aI3
aI15
aa(lp660
I0
aI0
aI0
aI0
aa(lp661
I20
aI5
aI3
aI15
aa(lp662
I0
aI0
aI0
aI0
aa(lp663
I32
aI7
aI6
aI30
aa(lp664
I20
aI4
aI3
aI15
aa(lp665
I0
aI0
aI0
aI0
aa(lp666
I18
aI5
aI3
aI15
aa(lp667
I0
aI0
aI0
aI0
aa(lp668
I27
aI3
aI6
aI30
aa(lp669
I0
aI0
aI0
aI0
aa(lp670
I25
aI5
aI6
aI30
aa(lp671
I20
aI4
aI3
aI15
aa(lp672
I8
aI2
aI0
aI0
aa(lp673
I0
aI0
aI0
aI0
aa(lp674
I15
aI4
aI0
aI0
aa(lp675
I14
aI2
aI3
aI15
aa(lp676
I0
aI0
aI0
aI0
aa(lp677
I20
aI3
aI3
aI15
aa(lp678
I8
aI2
aI0
aI0
aa(lp679
I18
aI4
aI3
aI15
aa(lp680
I18
aI4
aI3
aI15
aa(lp681
I20
aI4
aI3
aI15
aa(lp682
I21
aI3
aI6
aI30
aa(lp683
I0
aI0
aI0
aI0
aa(lp684
I33
aI7
aI6
aI30
aa(lp685
I28
aI5
aI6
aI30
aa(lp686
I0
aI0
aI0
aI0
aa(lp687
I13
aI1
aI3
aI15
aa(lp688
I18
aI4
aI3
aI15
aa(lp689
I8
aI2
aI0
aI0
aa(lp690
I0
aI0
aI0
aI0
aa(lp691
I0
aI0
aI0
aI0
aa(lp692
I16
aI3
aI3
aI15
aa(lp693
I30
aI6
aI6
aI30
aa(lp694
I21
aI3
aI6
aI30
aa(lp695
I0
aI0
aI0
aI0
aa(lp696
I23
aI4
aI6
aI30
aa(lp697
I0
aI0
aI0
aI0
aa(lp698
I18
aI4
aI3
aI15
aa(lp699
I24
aI7
aI3
aI15
aa(lp700
I8
aI2
aI0
aI0
aa(lp701
I20
aI5
aI3
aI15
aa(lp702
I14
aI2
aI3
aI15
aa(lp703
I25
aI6
aI3
aI15
aa(lp704
I0
aI0
aI0
aI0
aa(lp705
I21
aI3
aI6
aI30
aa(lp706
I0
aI0
aI0
aI0
aa(lp707
I18
aI4
aI3
aI15
aa(lp708
I15
aI2
aI3
aI15
aa(lp709
I14
aI2
aI3
aI15
aa(lp710
I35
aI9
aI3
aI15
aa(lp711
I0
aI0
aI0
aI0
aa(lp712
I21
aI4
aI3
aI15
aa(lp713
I0
aI0
aI0
aI0
aa(lp714
I17
aI3
aI3
aI15
aa(lp715
I36
aI7
aI9
aI45
aa(lp716
I8
aI2
aI0
aI0
aa(lp717
I24
aI6
aI3
aI15
aa(lp718
I21
aI3
aI6
aI30
aa(lp719
I15
aI2
aI3
aI15
aa(lp720
I22
aI4
aI3
aI15
aa(lp721
I0
aI0
aI0
aI0
aa(lp722
I0
aI0
aI0
aI0
aa(lp723
I32
aI6
aI9
aI45
aa(lp724
I16
aI3
aI3
aI15
aa(lp725
I8
aI2
aI0
aI0
aa(lp726
I17
aI3
aI3
aI15
aa(lp727
I0
aI0
aI0
aI0
aa(lp728
I0
aI0
aI0
aI0
aa(lp729
I16
aI3
aI3
aI15
aa(lp730
I0
aI0
aI0
aI0
aa(lp731
I23
aI4
aI6
aI30
aa(lp732
I0
aI0
aI0
aI0
aa(lp733
I0
aI0
aI0
aI0
aa(lp734
I18
aI4
aI3
aI15
aa(lp735
I21
aI3
aI6
aI30
aa(lp736
I26
aI5
aI3
aI15
aa(lp737
I20
aI3
aI3
aI15
aa(lp738
I0
aI0
aI0
aI0
aa(lp739
I0
aI0
aI0
aI0
aa(lp740
I0
aI0
aI0
aI0
aa(lp741
I20
aI5
aI3
aI15
aa(lp742
I0
aI0
aI0
aI0
aa(lp743
I0
aI0
aI0
aI0
aa(lp744
I26
aI6
aI6
aI30
aa(lp745
I21
aI4
aI3
aI15
aa(lp746
I18
aI4
aI3
aI15
aa(lp747
I0
aI0
aI0
aI0
aa(lp748
I26
aI5
aI6
aI30
aa(lp749
I12
aI1
aI3
aI15
aa(lp750
I0
aI0
aI0
aI0
aa(lp751
I0
aI0
aI0
aI0
aa(lp752
I13
aI2
aI3
aI15
aa(lp753
I0
aI0
aI0
aI0
aa(lp754
I0
aI0
aI0
aI0
aa(lp755
I18
aI4
aI3
aI15
aa(lp756
I27
aI4
aI6
aI30
aa(lp757
I30
aI7
aI6
aI30
aa(lp758
I0
aI0
aI0
aI0
aa(lp759
I18
aI3
aI3
aI15
aa(lp760
I15
aI2
aI3
aI15
aa(lp761
I0
aI0
aI0
aI0
aa(lp762
I33
aI9
aI3
aI15
aa(lp763
I22
aI5
aI3
aI15
aa(lp764
I16
aI3
aI3
aI15
aa(lp765
I32
aI7
aI3
aI15
aa(lp766
I16
aI3
aI3
aI15
aa(lp767
I11
aI3
aI0
aI0
aa(lp768
I25
aI3
aI6
aI30
aa(lp769
I16
aI3
aI3
aI15
aa(lp770
I21
aI4
aI3
aI15
aa(lp771
I0
aI0
aI0
aI0
aa(lp772
I26
aI4
aI6
aI30
aa(lp773
I0
aI0
aI0
aI0
aa(lp774
I18
aI5
aI3
aI15
aa(lp775
I28
aI5
aI6
aI30
aa(lp776
I15
aI2
aI3
aI15
aa(lp777
I33
aI10
aI3
aI15
aa(lp778
I15
aI2
aI3
aI15
aa(lp779
I0
aI0
aI0
aI0
aa(lp780
I20
aI5
aI3
aI15
aa(lp781
I0
aI0
aI0
aI0
aa(lp782
I0
aI0
aI0
aI0
aa(lp783
I23
aI4
aI6
aI30
aa(lp784
I21
aI4
aI3
aI15
aa(lp785
I14
aI2
aI3
aI15
aa(lp786
I15
aI2
aI3
aI15
aa(lp787
I20
aI5
aI3
aI15
aa(lp788
I28
aI5
aI6
aI30
aa(lp789
I15
aI2
aI3
aI15
aa(lp790
I0
aI0
aI0
aI0
aa(lp791
I0
aI0
aI0
aI0
aa(lp792
I0
aI0
aI0
aI0
aa(lp793
I21
aI1
aI6
aI30
aa(lp794
I0
aI0
aI0
aI0
aa(lp795
I0
aI0
aI0
aI0
aa(lp796
I30
aI8
aI3
aI15
aa(lp797
I14
aI2
aI3
aI15
aa(lp798
I16
aI3
aI3
aI15
aa(lp799
I22
aI6
aI3
aI15
aa(lp800
I35
aI9
aI3
aI15
aa(lp801
I20
aI3
aI3
aI15
aa(lp802
I0
aI0
aI0
aI0
aa(lp803
I27
aI3
aI6
aI30
aa(lp804
I0
aI0
aI0
aI0
aa(lp805
I21
aI4
aI3
aI15
aa(lp806
I0
aI0
aI0
aI0
aa(lp807
I17
aI3
aI3
aI15
aa(lp808
I8
aI2
aI0
aI0
aa(lp809
I18
aI4
aI3
aI15
aa(lp810
I16
aI3
aI3
aI15
aa(lp811
I16
aI5
aI0
aI0
aa(lp812
I16
aI3
aI3
aI15
aa(lp813
I21
aI4
aI3
aI15
aa(lp814
I28
aI6
aI6
aI30
aa(lp815
I0
aI0
aI0
aI0
aa(lp816
I0
aI0
aI0
aI0
aa(lp817
I0
aI0
aI0
aI0
aa(lp818
I0
aI0
aI0
aI0
aa(lp819
I0
aI0
aI0
aI0
aa(lp820
I20
aI5
aI3
aI15
aa(lp821
I14
aI2
aI3
aI15
aa(lp822
I26
aI4
aI6
aI30
aa(lp823
I21
aI4
aI3
aI15
aa(lp824
I38
aI10
aI6
aI30
aa(lp825
I19
aI4
aI3
aI15
aa(lp826
I8
aI2
aI0
aI0
aa(lp827
I0
aI0
aI0
aI0
aa(lp828
I0
aI0
aI0
aI0
aa(lp829
I21
aI1
aI3
aI15
aa(lp830
I0
aI0
aI0
aI0
aa(lp831
I16
aI3
aI3
aI15
aa(lp832
I18
aI4
aI3
aI15
aa(lp833
I0
aI0
aI0
aI0
aa(lp834
I0
aI0
aI0
aI0
aa(lp835
I19
aI4
aI3
aI15
aa(lp836
I21
aI4
aI3
aI15
aa(lp837
I0
aI0
aI0
aI0
aa(lp838
I23
aI6
aI3
aI15
aa(lp839
I8
aI2
aI0
aI0
aa(lp840
I32
aI7
aI3
aI15
aa(lp841
I14
aI2
aI3
aI15
aa(lp842
I18
aI4
aI3
aI15
aa(lp843
I35
aI9
aI3
aI15
aa(lp844
I0
aI0
aI0
aI0
aa(lp845
I0
aI0
aI0
aI0
aa(lp846
I21
aI4
aI3
aI15
aa(lp847
I0
aI0
aI0
aI0
aa(lp848
I24
aI5
aI3
aI15
aa(lp849
I30
aI6
aI6
aI30
aa(lp850
I21
aI3
aI3
aI15
aa(lp851
I24
aI4
aI6
aI30
aa(lp852
I17
aI3
aI3
aI15
aa(lp853
I19
aI5
aI3
aI15
aa(lp854
I0
aI0
aI0
aI0
aa(lp855
I16
aI3
aI3
aI15
aa(lp856
I8
aI2
aI0
aI0
aa(lp857
I17
aI3
aI3
aI15
aa(lp858
I0
aI0
aI0
aI0
aa(lp859
I22
aI3
aI6
aI30
aa(lp860
I27
aI3
aI6
aI30
aa(lp861
I23
aI5
aI3
aI15
aa(lp862
I24
aI6
aI3
aI15
aa(lp863
I15
aI2
aI3
aI15
aa(lp864
I12
aI1
aI3
aI15
aa(lp865
I26
aI7
aI3
aI9
aa(lp866
I0
aI0
aI0
aI0
aa(lp867
I23
aI3
aI6
aI30
aa(lp868
I21
aI5
aI3
aI15
aa(lp869
I21
aI3
aI6
aI30
aa(lp870
I21
aI4
aI3
aI15
aa(lp871
I0
aI0
aI0
aI0
aa(lp872
I18
aI4
aI3
aI15
aa(lp873
I12
aI1
aI3
aI15
aa(lp874
I39
aI6
aI9
aI45
aa(lp875
I18
aI3
aI3
aI15
aa(lp876
I8
aI2
aI0
aI0
aa(lp877
I20
aI5
aI3
aI15
aa(lp878
I0
aI0
aI0
aI0
aa(lp879
I22
aI5
aI3
aI15
aa(lp880
I0
aI0
aI0
aI0
aa(lp881
I28
aI7
aI3
aI15
aa(lp882
I14
aI0
aI0
aI0
aa(lp883
I33
aI7
aI6
aI30
aa(lp884
I0
aI0
aI0
aI0
aa(lp885
I0
aI0
aI0
aI0
aa(lp886
I0
aI0
aI0
aI0
aa(lp887
I18
aI3
aI3
aI15
aa(lp888
I29
aI5
aI6
aI30
aa(lp889
I16
aI3
aI3
aI15
aa(lp890
I0
aI0
aI0
aI0
aa(lp891
I28
aI7
aI3
aI15
aa(lp892
I21
aI4
aI3
aI15
aa(lp893
I23
aI6
aI3
aI15
aa(lp894
I17
aI3
aI3
aI15
aa(lp895
I19
aI3
aI3
aI15
aa(lp896
I16
aI3
aI3
aI15
aa(lp897
I18
aI3
aI3
aI15
aa(lp898
I20
aI5
aI3
aI15
aa(lp899
I16
aI3
aI3
aI15
aa(lp900
I23
aI6
aI3
aI15
aa(lp901
I0
aI0
aI0
aI0
aa(lp902
I18
aI4
aI3
aI15
aa(lp903
I16
aI3
aI3
aI15
aa(lp904
I0
aI0
aI0
aI0
aa(lp905
I26
aI5
aI6
aI30
aa(lp906
I29
aI6
aI6
aI30
aa(lp907
I0
aI0
aI0
aI0
aa(lp908
I19
aI4
aI3
aI15
aa(lp909
I21
aI4
aI3
aI15
aa(lp910
I21
aI3
aI6
aI30
aa(lp911
I26
aI6
aI3
aI15
aa(lp912
I0
aI0
aI0
aI0
aa(lp913
I32
aI7
aI6
aI30
aa(lp914
I20
aI4
aI3
aI15
aa(lp915
I0
aI0
aI0
aI0
aa(lp916
I0
aI0
aI0
aI0
aa(lp917
I0
aI0
aI0
aI0
aa(lp918
I8
aI2
aI0
aI0
aa(lp919
I14
aI2
aI3
aI15
aa(lp920
I0
aI0
aI0
aI0
aa(lp921
I0
aI0
aI0
aI0
aa(lp922
I28
aI5
aI6
aI30
aa(lp923
I20
aI5
aI3
aI15
aa(lp924
I0
aI0
aI0
aI0
aa(lp925
I15
aI2
aI3
aI15
aa(lp926
I0
aI0
aI0
aI0
aa(lp927
I0
aI0
aI0
aI0
aa(lp928
I15
aI2
aI3
aI15
aa(lp929
I0
aI0
aI0
aI0
aa(lp930
I22
aI4
aI3
aI15
aa(lp931
I20
aI5
aI3
aI15
aa(lp932
I25
aI6
aI3
aI15
aa(lp933
I24
aI5
aI3
aI15
aa(lp934
I18
aI4
aI3
aI15
aa(lp935
I8
aI2
aI0
aI0
aa(lp936
I0
aI0
aI0
aI0
aa(lp937
I8
aI2
aI0
aI0
aa(lp938
I20
aI4
aI3
aI15
aa(lp939
I21
aI5
aI3
aI15
aa(lp940
I0
aI0
aI0
aI0
aa(lp941
I18
aI4
aI3
aI15
aa(lp942
I8
aI2
aI0
aI0
aa(lp943
I0
aI0
aI0
aI0
aa(lp944
I0
aI0
aI0
aI0
aa(lp945
I0
aI0
aI0
aI0
aa(lp946
I20
aI5
aI3
aI15
aa(lp947
I8
aI2
aI0
aI0
aa(lp948
I23
aI4
aI3
aI15
aa(lp949
I0
aI0
aI0
aI0
aa(lp950
I21
aI4
aI3
aI15
aa(lp951
I0
aI0
aI0
aI0
aa(lp952
I0
aI0
aI0
aI0
aa(lp953
I16
aI3
aI3
aI15
aa(lp954
I0
aI0
aI0
aI0
aa(lp955
I0
aI0
aI0
aI0
aa(lp956
I21
aI4
aI3
aI15
aa(lp957
I0
aI0
aI0
aI0
aa(lp958
I20
aI5
aI3
aI15
aa(lp959
I16
aI3
aI3
aI15
aa(lp960
I0
aI0
aI0
aI0
aa(lp961
I0
aI0
aI0
aI0
aa(lp962
I20
aI5
aI3
aI15
aa(lp963
I6
aI1
aI0
aI0
aa(lp964
I20
aI4
aI3
aI15
aa(lp965
I17
aI3
aI3
aI15
aa(lp966
I21
aI3
aI6
aI30
aa(lp967
I21
aI5
aI3
aI15
aa(lp968
I0
aI0
aI0
aI0
aa(lp969
I12
aI4
aI0
aI0
aa(lp970
I24
aI6
aI3
aI15
aa(lp971
I18
aI4
aI3
aI15
aa(lp972
I34
aI6
aI9
aI45
aa(lp973
I0
aI0
aI0
aI0
aa(lp974
I0
aI0
aI0
aI0
aa(lp975
I25
aI4
aI6
aI30
aa(lp976
I24
aI5
aI3
aI15
aa(lp977
I0
aI0
aI0
aI0
aa(lp978
I29
aI6
aI6
aI30
aa(lp979
I0
aI0
aI0
aI0
aa(lp980
I0
aI0
aI0
aI0
aa(lp981
I0
aI0
aI0
aI0
aa(lp982
I28
aI6
aI6
aI30
aa(lp983
I14
aI2
aI3
aI15
aa(lp984
I18
aI4
aI3
aI15
aa(lp985
I0
aI0
aI0
aI0
aa(lp986
I18
aI3
aI3
aI15
aa(lp987
I0
aI0
aI0
aI0
aa(lp988
I13
aI1
aI3
aI15
aa(lp989
I20
aI4
aI3
aI15
aa(lp990
I27
aI4
aI6
aI30
aa(lp991
I17
aI3
aI3
aI15
aa(lp992
I23
aI4
aI6
aI30
aa(lp993
I14
aI2
aI3
aI15
aa(lp994
I0
aI0
aI0
aI0
aa(lp995
I0
aI0
aI0
aI0
aa(lp996
I0
aI0
aI0
aI0
aa(lp997
I0
aI0
aI0
aI0
aa(lp998
I17
aI3
aI3
aI15
aa(lp999
I22
aI4
aI3
aI15
aa(lp1000
I25
aI5
aI3
aI15
aa(lp1001
I28
aI7
aI3
aI15
aa(lp1002
I15
aI2
aI3
aI15
aa.